; Function Attrs: mustprogress nofree norecurse nosync nounwind willreturn memory(argmem: readwrite) uwtable
define hidden void @_ZNK11mpf_manager6mk_oneEjjbR3mpf(ptr nocapture noundef nonnull readonly align 8 dereferenceable(840) %this, i32 noundef %ebits, i32 noundef %sbits, i1 noundef zeroext %sign, ptr nocapture noundef nonnull align 8 dereferenceable(32) %o) local_unnamed_addr #3 align 2 {
entry:
  %bf.value = shl i32 %sbits, 15
  %bf.value3 = and i32 %ebits, 32767
  %bf.shl8 = select i1 %sign, i32 -2147483648, i32 0
  %bf.value.masked = and i32 %bf.value, 2147450880
  %bf.clear9 = or disjoint i32 %bf.value.masked, %bf.value3
  %bf.set10 = or disjoint i32 %bf.clear9, %bf.shl8
  store i32 %bf.set10, ptr %o, align 8
  %significand = getelementptr inbounds i8, ptr %o, i64 8
  store i32 0, ptr %significand, align 8
  %m_kind.i = getelementptr inbounds i8, ptr %o, i64 12
  %bf.load.i = load i8, ptr %m_kind.i, align 4
  %bf.clear.i = and i8 %bf.load.i, -2
  store i8 %bf.clear.i, ptr %m_kind.i, align 4
  %exponent = getelementptr inbounds i8, ptr %o, i64 24
  store i64 0, ptr %exponent, align 8
  ret void
}